SF:/home/rubentxu/Proyectos/rust/hodei-jobs/crates/api/src/handlers/mod.rs
FN:28,_RNCNvNtCsjEAOoLCkgEf_3api8handlers18create_job_handler0B5_
FN:25,_RNvNtCsjEAOoLCkgEf_3api8handlers18create_job_handler
FNDA:0,_RNCNvNtCsjEAOoLCkgEf_3api8handlers18create_job_handler0B5_
FNDA:0,_RNvNtCsjEAOoLCkgEf_3api8handlers18create_job_handler
FNF:2
FNH:0
DA:25,0
DA:26,0
DA:27,0
DA:28,0
DA:30,0
DA:31,0
DA:32,0
DA:33,0
DA:34,0
BRF:0
BRH:0
LF:10
LH:0
end_of_record
SF:/home/rubentxu/Proyectos/rust/hodei-jobs/crates/api/src/routes/mod.rs
FN:11,_RNCNCNvNtCsjEAOoLCkgEf_3api6routes13create_router00B7_
FN:11,_RNCNvNtCsjEAOoLCkgEf_3api6routes13create_router0B5_
FN:8,_RNvNtCsjEAOoLCkgEf_3api6routes13create_router
FNDA:0,_RNCNCNvNtCsjEAOoLCkgEf_3api6routes13create_router00B7_
FNDA:0,_RNCNvNtCsjEAOoLCkgEf_3api6routes13create_router0B5_
FNDA:0,_RNvNtCsjEAOoLCkgEf_3api6routes13create_router
FNF:3
FNH:0
DA:8,0
DA:9,0
DA:10,0
DA:11,0
DA:12,0
BRF:0
BRH:0
LF:7
LH:0
end_of_record
SF:/home/rubentxu/Proyectos/rust/hodei-jobs/crates/application/src/job_service/mod.rs
FN:10,_RNvMNtCs5vU4VSpySte_11application11job_serviceNtB2_10JobService3new
FNDA:0,_RNvMNtCs5vU4VSpySte_11application11job_serviceNtB2_10JobService3new
FNF:1
FNH:0
DA:10,0
DA:11,0
DA:12,0
BRF:0
BRH:0
LF:3
LH:0
end_of_record
SF:/home/rubentxu/Proyectos/rust/hodei-jobs/crates/application/src/provider_service/mod.rs
FN:10,_RNvMNtCs5vU4VSpySte_11application16provider_serviceNtB2_15ProviderService3new
FNDA:0,_RNvMNtCs5vU4VSpySte_11application16provider_serviceNtB2_15ProviderService3new
FNF:1
FNH:0
DA:10,0
DA:11,0
DA:12,0
BRF:0
BRH:0
LF:3
LH:0
end_of_record
SF:/home/rubentxu/Proyectos/rust/hodei-jobs/crates/domain/src/execution_coordination/services/mod.rs
FN:38,_RNvNtNtNtCs3dcIfeNtHV6_6domain22execution_coordination8services5testss_25test_coordinate_execution
FN:15,_RNvMNtNtCs3dcIfeNtHV6_6domain22execution_coordination8servicesNtB2_20ExecutionCoordinator20coordinate_execution
FN:11,_RNvMNtNtCs3dcIfeNtHV6_6domain22execution_coordination8servicesNtB2_20ExecutionCoordinator3new
FN:19,_RNCNvMNtNtCs3dcIfeNtHV6_6domain22execution_coordination8servicesNtB4_20ExecutionCoordinator20coordinate_execution0B8_
FN:38,_RNCNvNtNtNtCs3dcIfeNtHV6_6domain22execution_coordination8services5testss_25test_coordinate_execution0B9_
FNDA:1,_RNvNtNtNtCs3dcIfeNtHV6_6domain22execution_coordination8services5testss_25test_coordinate_execution
FNDA:1,_RNvMNtNtCs3dcIfeNtHV6_6domain22execution_coordination8servicesNtB2_20ExecutionCoordinator20coordinate_execution
FNDA:1,_RNvMNtNtCs3dcIfeNtHV6_6domain22execution_coordination8servicesNtB2_20ExecutionCoordinator3new
FNDA:1,_RNCNvMNtNtCs3dcIfeNtHV6_6domain22execution_coordination8servicesNtB4_20ExecutionCoordinator20coordinate_execution0B8_
FNDA:1,_RNCNvNtNtNtCs3dcIfeNtHV6_6domain22execution_coordination8services5testss_25test_coordinate_execution0B9_
FNF:5
FNH:5
DA:11,1
DA:12,1
DA:13,1
DA:15,1
DA:16,1
DA:17,1
DA:18,1
DA:19,1
DA:20,1
DA:21,1
DA:22,1
DA:23,1
DA:24,1
DA:25,1
DA:38,1
DA:39,1
DA:41,1
DA:42,1
DA:43,1
DA:44,1
DA:45,1
DA:47,1
DA:49,1
DA:50,1
DA:51,1
DA:52,1
DA:53,1
DA:54,1
DA:55,1
DA:56,1
DA:57,1
DA:58,1
DA:59,1
DA:60,1
DA:64,1
DA:65,1
DA:66,1
DA:67,1
DA:69,1
DA:70,1
DA:71,1
BRF:0
BRH:0
LF:44
LH:44
end_of_record
SF:/home/rubentxu/Proyectos/rust/hodei-jobs/crates/domain/src/job_execution/entities/mod.rs
FN:38,_RNvMNtNtCs3dcIfeNtHV6_6domain13job_execution8entitiesNtB2_3Job18submit_to_provider
FN:22,_RNvMNtNtCs3dcIfeNtHV6_6domain13job_execution8entitiesNtB2_3Job3new
FN:49,_RNvMNtNtCs3dcIfeNtHV6_6domain13job_execution8entitiesNtB2_3Job4fail
FN:54,_RNvMNtNtCs3dcIfeNtHV6_6domain13job_execution8entitiesNtB2_3Job6cancel
FN:44,_RNvMNtNtCs3dcIfeNtHV6_6domain13job_execution8entitiesNtB2_3Job8complete
FN:66,_RNvNtNtNtCs3dcIfeNtHV6_6domain13job_execution8entities5testss_31test_create_job_with_valid_spec
FN:127,_RNvNtNtNtCs3dcIfeNtHV6_6domain13job_execution8entities5testss_31test_fail_transitions_to_failed
FN:139,_RNvNtNtNtCs3dcIfeNtHV6_6domain13job_execution8entities5testss_36test_cancel_transitions_to_cancelled
FN:82,_RNvNtNtNtCs3dcIfeNtHV6_6domain13job_execution8entities5testss_37test_create_job_with_empty_name_fails
FN:115,_RNvNtNtNtCs3dcIfeNtHV6_6domain13job_execution8entities5testss_38test_complete_transitions_to_completed
FN:96,_RNvNtNtNtCs3dcIfeNtHV6_6domain13job_execution8entities5testss_46test_submit_to_provider_transitions_to_running
FNDA:3,_RNvMNtNtCs3dcIfeNtHV6_6domain13job_execution8entitiesNtB2_3Job18submit_to_provider
FNDA:11,_RNvMNtNtCs3dcIfeNtHV6_6domain13job_execution8entitiesNtB2_3Job3new
FNDA:1,_RNvMNtNtCs3dcIfeNtHV6_6domain13job_execution8entitiesNtB2_3Job4fail
FNDA:1,_RNvMNtNtCs3dcIfeNtHV6_6domain13job_execution8entitiesNtB2_3Job6cancel
FNDA:2,_RNvMNtNtCs3dcIfeNtHV6_6domain13job_execution8entitiesNtB2_3Job8complete
FNDA:1,_RNvNtNtNtCs3dcIfeNtHV6_6domain13job_execution8entities5testss_31test_create_job_with_valid_spec
FNDA:1,_RNvNtNtNtCs3dcIfeNtHV6_6domain13job_execution8entities5testss_31test_fail_transitions_to_failed
FNDA:1,_RNvNtNtNtCs3dcIfeNtHV6_6domain13job_execution8entities5testss_36test_cancel_transitions_to_cancelled
FNDA:1,_RNvNtNtNtCs3dcIfeNtHV6_6domain13job_execution8entities5testss_37test_create_job_with_empty_name_fails
FNDA:1,_RNvNtNtNtCs3dcIfeNtHV6_6domain13job_execution8entities5testss_38test_complete_transitions_to_completed
FNDA:1,_RNvNtNtNtCs3dcIfeNtHV6_6domain13job_execution8entities5testss_46test_submit_to_provider_transitions_to_running
FNF:11
FNH:11
DA:22,11
DA:23,11
DA:24,2
DA:25,2
DA:26,2
DA:27,9
DA:29,9
DA:30,9
DA:31,9
DA:32,9
DA:33,9
DA:34,9
DA:35,11
DA:38,3
DA:39,3
DA:40,3
DA:41,3
DA:44,2
DA:45,2
DA:46,2
DA:49,1
DA:50,1
DA:51,1
DA:54,1
DA:55,1
DA:56,1
DA:66,1
DA:67,1
DA:68,1
DA:69,1
DA:70,1
DA:71,1
DA:74,1
DA:76,1
DA:77,1
DA:78,1
DA:79,1
DA:82,1
DA:83,1
DA:84,1
DA:85,1
DA:86,1
DA:87,1
DA:90,1
DA:92,1
DA:93,1
DA:96,1
DA:97,1
DA:98,1
DA:100,1
DA:101,1
DA:102,1
DA:103,1
DA:104,1
DA:105,1
DA:108,1
DA:110,1
DA:111,1
DA:112,1
DA:115,1
DA:116,1
DA:117,1
DA:119,1
DA:121,1
DA:123,1
DA:124,1
DA:127,1
DA:128,1
DA:129,1
DA:131,1
DA:133,1
DA:135,1
DA:136,1
DA:139,1
DA:140,1
DA:141,1
DA:143,1
DA:145,1
DA:147,1
DA:148,1
BRF:0
BRH:0
LF:80
LH:80
end_of_record
SF:/home/rubentxu/Proyectos/rust/hodei-jobs/crates/domain/src/job_execution/services/mod.rs
FN:49,_RNvNtNtNtCs3dcIfeNtHV6_6domain13job_execution8services5testss_31test_execution_context_creation
FN:65,_RNvNtNtNtCs3dcIfeNtHV6_6domain13job_execution8services5testss_34test_execution_context_with_result
FN:26,_RNvMNtNtCs3dcIfeNtHV6_6domain13job_execution8servicesNtB2_12JobScheduler15select_provider
FN:21,_RNvMNtNtCs3dcIfeNtHV6_6domain13job_execution8servicesNtB2_12JobScheduler3new
FNDA:1,_RNvNtNtNtCs3dcIfeNtHV6_6domain13job_execution8services5testss_31test_execution_context_creation
FNDA:1,_RNvNtNtNtCs3dcIfeNtHV6_6domain13job_execution8services5testss_34test_execution_context_with_result
FNDA:1,_RNvMNtNtCs3dcIfeNtHV6_6domain13job_execution8servicesNtB2_12JobScheduler15select_provider
FNDA:2,_RNvMNtNtCs3dcIfeNtHV6_6domain13job_execution8servicesNtB2_12JobScheduler3new
FNF:4
FNH:4
DA:21,2
DA:22,2
DA:23,2
DA:26,1
DA:27,1
DA:28,1
DA:29,1
DA:30,1
DA:31,1
DA:32,0
DA:33,0
DA:34,0
DA:35,1
DA:38,1
DA:39,1
DA:49,1
DA:50,1
DA:51,1
DA:52,1
DA:54,1
DA:55,1
DA:57,1
DA:58,1
DA:59,1
DA:60,1
DA:61,1
DA:62,1
DA:65,1
DA:66,1
DA:67,1
DA:69,1
DA:70,1
DA:72,1
DA:73,1
DA:74,1
DA:75,1
DA:76,1
DA:77,1
DA:79,1
DA:81,1
DA:82,1
BRF:0
BRH:0
LF:41
LH:38
end_of_record
SF:/home/rubentxu/Proyectos/rust/hodei-jobs/crates/domain/src/job_execution/use_cases/mod.rs
FN:14,_RNvMNtNtCs3dcIfeNtHV6_6domain13job_execution9use_casesNtB2_16CreateJobUseCase3new
FN:18,_RNvMNtNtCs3dcIfeNtHV6_6domain13job_execution9use_casesNtB2_16CreateJobUseCase7execute
FN:73,_RNvMs0_NtNtCs3dcIfeNtHV6_6domain13job_execution9use_casesNtB5_19GetJobResultUseCase3new
FN:77,_RNvMs0_NtNtCs3dcIfeNtHV6_6domain13job_execution9use_casesNtB5_19GetJobResultUseCase7execute
FN:36,_RNvMs_NtNtCs3dcIfeNtHV6_6domain13job_execution9use_casesNtB4_17ExecuteJobUseCase3new
FN:43,_RNvMs_NtNtCs3dcIfeNtHV6_6domain13job_execution9use_casesNtB4_17ExecuteJobUseCase7execute
FN:135,_RNCNvNtNtNtCs3dcIfeNtHV6_6domain13job_execution9use_cases5testss_32test_create_job_use_case_success0B9_
FN:171,_RNCNvNtNtNtCs3dcIfeNtHV6_6domain13job_execution9use_cases5testss_33test_execute_job_use_case_success0B9_
FN:234,_RNCNvNtNtNtCs3dcIfeNtHV6_6domain13job_execution9use_cases5testss_36test_get_job_result_use_case_success0B9_
FN:208,_RNCNvNtNtNtCs3dcIfeNtHV6_6domain13job_execution9use_cases5testss_39test_execute_job_use_case_job_not_found0B9_
FN:152,_RNCNvNtNtNtCs3dcIfeNtHV6_6domain13job_execution9use_cases5testss_41test_create_job_use_case_empty_name_fails0B9_
FN:102,_RNvMNtNtNtCs3dcIfeNtHV6_6domain13job_execution9use_cases5testsNtB2_17MockJobRepository3new
FN:135,_RNvNtNtNtCs3dcIfeNtHV6_6domain13job_execution9use_cases5testss_32test_create_job_use_case_success
FN:171,_RNvNtNtNtCs3dcIfeNtHV6_6domain13job_execution9use_cases5testss_33test_execute_job_use_case_success
FN:234,_RNvNtNtNtCs3dcIfeNtHV6_6domain13job_execution9use_cases5testss_36test_get_job_result_use_case_success
FN:208,_RNvNtNtNtCs3dcIfeNtHV6_6domain13job_execution9use_cases5testss_39test_execute_job_use_case_job_not_found
FN:152,_RNvNtNtNtCs3dcIfeNtHV6_6domain13job_execution9use_cases5testss_41test_create_job_use_case_empty_name_fails
FN:117,_RNvXs_NtNtNtCs3dcIfeNtHV6_6domain13job_execution9use_cases5testsNtB4_17MockJobRepositoryNtNtB8_12repositories13JobRepository10find_by_id
FN:122,_RNvXs_NtNtNtCs3dcIfeNtHV6_6domain13job_execution9use_cases5testsNtB4_17MockJobRepositoryNtNtB8_12repositories13JobRepository4list
FN:111,_RNvXs_NtNtNtCs3dcIfeNtHV6_6domain13job_execution9use_cases5testsNtB4_17MockJobRepositoryNtNtB8_12repositories13JobRepository4save
FN:127,_RNvXs_NtNtNtCs3dcIfeNtHV6_6domain13job_execution9use_cases5testsNtB4_17MockJobRepositoryNtNtB8_12repositories13JobRepository6delete
FN:81,_RNCNCNvMs0_NtNtCs3dcIfeNtHV6_6domain13job_execution9use_casesNtB9_19GetJobResultUseCase7execute00Bd_
FN:48,_RNCNCNvMs_NtNtCs3dcIfeNtHV6_6domain13job_execution9use_casesNtB8_17ExecuteJobUseCase7execute00Bc_
FN:18,_RNCNvMNtNtCs3dcIfeNtHV6_6domain13job_execution9use_casesNtB4_16CreateJobUseCase7execute0B8_
FN:80,_RNCNvMs0_NtNtCs3dcIfeNtHV6_6domain13job_execution9use_casesNtB7_19GetJobResultUseCase7execute0Bb_
FN:47,_RNCNvMs_NtNtCs3dcIfeNtHV6_6domain13job_execution9use_casesNtB6_17ExecuteJobUseCase7execute0Ba_
FNDA:2,_RNvMNtNtCs3dcIfeNtHV6_6domain13job_execution9use_casesNtB2_16CreateJobUseCase3new
FNDA:2,_RNvMNtNtCs3dcIfeNtHV6_6domain13job_execution9use_casesNtB2_16CreateJobUseCase7execute
FNDA:1,_RNvMs0_NtNtCs3dcIfeNtHV6_6domain13job_execution9use_casesNtB5_19GetJobResultUseCase3new
FNDA:1,_RNvMs0_NtNtCs3dcIfeNtHV6_6domain13job_execution9use_casesNtB5_19GetJobResultUseCase7execute
FNDA:2,_RNvMs_NtNtCs3dcIfeNtHV6_6domain13job_execution9use_casesNtB4_17ExecuteJobUseCase3new
FNDA:2,_RNvMs_NtNtCs3dcIfeNtHV6_6domain13job_execution9use_casesNtB4_17ExecuteJobUseCase7execute
FNDA:1,_RNCNvNtNtNtCs3dcIfeNtHV6_6domain13job_execution9use_cases5testss_32test_create_job_use_case_success0B9_
FNDA:1,_RNCNvNtNtNtCs3dcIfeNtHV6_6domain13job_execution9use_cases5testss_33test_execute_job_use_case_success0B9_
FNDA:1,_RNCNvNtNtNtCs3dcIfeNtHV6_6domain13job_execution9use_cases5testss_36test_get_job_result_use_case_success0B9_
FNDA:1,_RNCNvNtNtNtCs3dcIfeNtHV6_6domain13job_execution9use_cases5testss_39test_execute_job_use_case_job_not_found0B9_
FNDA:1,_RNCNvNtNtNtCs3dcIfeNtHV6_6domain13job_execution9use_cases5testss_41test_create_job_use_case_empty_name_fails0B9_
FNDA:5,_RNvMNtNtNtCs3dcIfeNtHV6_6domain13job_execution9use_cases5testsNtB2_17MockJobRepository3new
FNDA:1,_RNvNtNtNtCs3dcIfeNtHV6_6domain13job_execution9use_cases5testss_32test_create_job_use_case_success
FNDA:1,_RNvNtNtNtCs3dcIfeNtHV6_6domain13job_execution9use_cases5testss_33test_execute_job_use_case_success
FNDA:1,_RNvNtNtNtCs3dcIfeNtHV6_6domain13job_execution9use_cases5testss_36test_get_job_result_use_case_success
FNDA:1,_RNvNtNtNtCs3dcIfeNtHV6_6domain13job_execution9use_cases5testss_39test_execute_job_use_case_job_not_found
FNDA:1,_RNvNtNtNtCs3dcIfeNtHV6_6domain13job_execution9use_cases5testss_41test_create_job_use_case_empty_name_fails
FNDA:3,_RNvXs_NtNtNtCs3dcIfeNtHV6_6domain13job_execution9use_cases5testsNtB4_17MockJobRepositoryNtNtB8_12repositories13JobRepository10find_by_id
FNDA:0,_RNvXs_NtNtNtCs3dcIfeNtHV6_6domain13job_execution9use_cases5testsNtB4_17MockJobRepositoryNtNtB8_12repositories13JobRepository4list
FNDA:2,_RNvXs_NtNtNtCs3dcIfeNtHV6_6domain13job_execution9use_cases5testsNtB4_17MockJobRepositoryNtNtB8_12repositories13JobRepository4save
FNDA:0,_RNvXs_NtNtNtCs3dcIfeNtHV6_6domain13job_execution9use_cases5testsNtB4_17MockJobRepositoryNtNtB8_12repositories13JobRepository6delete
FNDA:0,_RNCNCNvMs0_NtNtCs3dcIfeNtHV6_6domain13job_execution9use_casesNtB9_19GetJobResultUseCase7execute00Bd_
FNDA:1,_RNCNCNvMs_NtNtCs3dcIfeNtHV6_6domain13job_execution9use_casesNtB8_17ExecuteJobUseCase7execute00Bc_
FNDA:2,_RNCNvMNtNtCs3dcIfeNtHV6_6domain13job_execution9use_casesNtB4_16CreateJobUseCase7execute0B8_
FNDA:1,_RNCNvMs0_NtNtCs3dcIfeNtHV6_6domain13job_execution9use_casesNtB7_19GetJobResultUseCase7execute0Bb_
FNDA:2,_RNCNvMs_NtNtCs3dcIfeNtHV6_6domain13job_execution9use_casesNtB6_17ExecuteJobUseCase7execute0Ba_
FNF:26
FNH:23
DA:14,2
DA:15,2
DA:16,2
DA:18,2
DA:19,2
DA:20,2
DA:21,2
DA:22,1
DA:24,1
DA:25,1
DA:26,2
DA:36,2
DA:37,2
DA:38,2
DA:39,2
DA:40,2
DA:41,2
DA:43,2
DA:44,2
DA:45,2
DA:46,2
DA:47,2
DA:48,2
DA:49,1
DA:50,1
DA:52,1
DA:54,1
DA:55,1
DA:56,1
DA:57,1
DA:60,1
DA:61,1
DA:63,1
DA:64,2
DA:73,1
DA:74,1
DA:75,1
DA:77,1
DA:78,1
DA:79,1
DA:80,1
DA:81,1
DA:82,0
DA:83,0
DA:85,1
DA:86,1
DA:102,5
DA:103,5
DA:104,5
DA:105,5
DA:106,5
DA:111,2
DA:115,2
DA:117,3
DA:120,3
DA:122,0
DA:125,0
DA:127,0
DA:131,0
DA:135,1
DA:136,1
DA:137,1
DA:139,1
DA:140,1
DA:141,1
DA:142,1
DA:145,1
DA:147,1
DA:148,1
DA:149,1
DA:152,1
DA:153,1
DA:154,1
DA:156,1
DA:157,1
DA:158,1
DA:159,1
DA:162,1
DA:164,1
DA:165,1
DA:166,1
DA:167,1
DA:168,1
DA:171,1
DA:172,1
DA:173,1
DA:176,1
DA:177,1
DA:178,1
DA:179,1
DA:180,1
DA:181,1
DA:183,1
DA:185,1
DA:186,1
DA:187,1
DA:188,1
DA:189,1
DA:190,1
DA:191,1
DA:192,1
DA:193,1
DA:194,1
DA:195,1
DA:197,1
DA:198,1
DA:199,1
DA:200,1
DA:202,1
DA:203,1
DA:204,1
DA:205,1
DA:208,1
DA:209,1
DA:210,1
DA:212,1
DA:213,1
DA:214,1
DA:215,1
DA:216,1
DA:217,1
DA:218,1
DA:219,1
DA:220,1
DA:221,1
DA:222,1
DA:223,1
DA:225,1
DA:227,1
DA:228,1
DA:229,1
DA:230,1
DA:231,1
DA:234,1
DA:235,1
DA:236,1
DA:239,1
DA:240,1
DA:241,1
DA:242,1
DA:243,1
DA:244,1
DA:245,1
DA:246,1
DA:247,1
DA:248,1
DA:249,1
DA:250,1
DA:251,1
DA:252,1
DA:253,1
DA:254,1
DA:256,1
DA:258,1
DA:260,1
DA:261,1
BRF:0
BRH:0
LF:177
LH:167
end_of_record
SF:/home/rubentxu/Proyectos/rust/hodei-jobs/crates/domain/src/job_execution/value_objects/mod.rs
FN:68,_RNvNtNtNtCs3dcIfeNtHV6_6domain13job_execution13value_objects5testss_22test_job_spec_creation
FN:83,_RNvNtNtNtCs3dcIfeNtHV6_6domain13job_execution13value_objects5testss_29test_job_spec_with_all_fields
FN:22,_RNvMNtNtCs3dcIfeNtHV6_6domain13job_execution13value_objectsNtB2_7JobSpec3new
FN:47,_RNvMs_NtNtCs3dcIfeNtHV6_6domain13job_execution13value_objectsNtB4_16ExecutionContext3new
FNDA:1,_RNvNtNtNtCs3dcIfeNtHV6_6domain13job_execution13value_objects5testss_22test_job_spec_creation
FNDA:1,_RNvNtNtNtCs3dcIfeNtHV6_6domain13job_execution13value_objects5testss_29test_job_spec_with_all_fields
FNDA:13,_RNvMNtNtCs3dcIfeNtHV6_6domain13job_execution13value_objectsNtB2_7JobSpec3new
FNDA:5,_RNvMs_NtNtCs3dcIfeNtHV6_6domain13job_execution13value_objectsNtB4_16ExecutionContext3new
FNF:4
FNH:4
DA:22,13
DA:23,13
DA:24,13
DA:25,13
DA:26,13
DA:27,13
DA:28,13
DA:29,13
DA:30,13
DA:47,5
DA:48,5
DA:49,5
DA:50,5
DA:51,5
DA:52,5
DA:53,5
DA:54,5
DA:55,5
DA:56,5
DA:57,5
DA:58,5
DA:59,5
DA:68,1
DA:69,1
DA:70,1
DA:71,1
DA:72,1
DA:75,1
DA:76,1
DA:77,1
DA:78,1
DA:79,1
DA:80,1
DA:83,1
DA:84,1
DA:85,1
DA:86,1
DA:87,1
DA:90,1
DA:91,1
DA:92,1
DA:93,1
DA:94,1
DA:95,1
DA:97,1
DA:98,1
DA:99,1
DA:100,1
DA:101,1
DA:103,1
DA:104,1
DA:105,1
DA:106,1
DA:107,1
BRF:0
BRH:0
LF:54
LH:54
end_of_record
SF:/home/rubentxu/Proyectos/rust/hodei-jobs/crates/domain/src/provider_management/entities/mod.rs
FN:47,_RNvMNtNtCs3dcIfeNtHV6_6domain19provider_management8entitiesNtB2_8Provider10deactivate
FN:51,_RNvMNtNtCs3dcIfeNtHV6_6domain19provider_management8entitiesNtB2_8Provider10mark_error
FN:26,_RNvMNtNtCs3dcIfeNtHV6_6domain19provider_management8entitiesNtB2_8Provider3new
FN:43,_RNvMNtNtCs3dcIfeNtHV6_6domain19provider_management8entitiesNtB2_8Provider8activate
FN:124,_RNvNtNtNtCs3dcIfeNtHV6_6domain19provider_management8entities5testss_15test_mark_error
FN:62,_RNvNtNtNtCs3dcIfeNtHV6_6domain19provider_management8entities5testss_20test_create_provider
FN:91,_RNvNtNtNtCs3dcIfeNtHV6_6domain19provider_management8entities5testss_22test_activate_provider
FNDA:2,_RNvMNtNtCs3dcIfeNtHV6_6domain19provider_management8entitiesNtB2_8Provider10deactivate
FNDA:2,_RNvMNtNtCs3dcIfeNtHV6_6domain19provider_management8entitiesNtB2_8Provider10mark_error
FNDA:12,_RNvMNtNtCs3dcIfeNtHV6_6domain19provider_management8entitiesNtB2_8Provider3new
FNDA:2,_RNvMNtNtCs3dcIfeNtHV6_6domain19provider_management8entitiesNtB2_8Provider8activate
FNDA:1,_RNvNtNtNtCs3dcIfeNtHV6_6domain19provider_management8entities5testss_15test_mark_error
FNDA:1,_RNvNtNtNtCs3dcIfeNtHV6_6domain19provider_management8entities5testss_20test_create_provider
FNDA:1,_RNvNtNtNtCs3dcIfeNtHV6_6domain19provider_management8entities5testss_22test_activate_provider
FNF:7
FNH:7
DA:26,12
DA:27,12
DA:28,12
DA:29,12
DA:30,12
DA:31,12
DA:32,12
DA:33,12
DA:34,12
DA:35,12
DA:36,12
DA:37,12
DA:38,12
DA:39,12
DA:40,12
DA:41,12
DA:43,2
DA:44,2
DA:45,2
DA:47,2
DA:48,2
DA:49,2
DA:51,2
DA:52,2
DA:53,2
DA:62,1
DA:63,1
DA:64,1
DA:65,1
DA:66,1
DA:67,1
DA:68,1
DA:69,1
DA:70,1
DA:71,1
DA:74,1
DA:75,1
DA:76,1
DA:77,1
DA:78,1
DA:79,1
DA:82,1
DA:83,1
DA:84,1
DA:85,1
DA:86,1
DA:87,1
DA:88,1
DA:91,1
DA:92,1
DA:93,1
DA:94,1
DA:95,1
DA:96,1
DA:97,1
DA:98,1
DA:99,1
DA:100,1
DA:103,1
DA:104,1
DA:105,1
DA:106,1
DA:107,1
DA:108,1
DA:112,1
DA:115,1
DA:116,1
DA:119,1
DA:120,1
DA:121,1
DA:124,1
DA:125,1
DA:126,1
DA:127,1
DA:128,1
DA:129,1
DA:130,1
DA:131,1
DA:132,1
DA:133,1
DA:136,1
DA:137,1
DA:138,1
DA:139,1
DA:140,1
DA:141,1
DA:144,1
DA:146,1
DA:147,1
BRF:0
BRH:0
LF:89
LH:89
end_of_record
SF:/home/rubentxu/Proyectos/rust/hodei-jobs/crates/domain/src/provider_management/services/mod.rs
FN:13,_RNvMNtNtCs3dcIfeNtHV6_6domain19provider_management8servicesNtB2_16ProviderRegistry17get_all_providers
FN:17,_RNvMNtNtCs3dcIfeNtHV6_6domain19provider_management8servicesNtB2_16ProviderRegistry21get_healthy_providers
FN:9,_RNvMNtNtCs3dcIfeNtHV6_6domain19provider_management8servicesNtB2_16ProviderRegistry3new
FN:20,_RNCNvMNtNtCs3dcIfeNtHV6_6domain19provider_management8servicesNtB4_16ProviderRegistry21get_healthy_providers0B8_
FN:32,_RNvNtNtNtCs3dcIfeNtHV6_6domain19provider_management8services5testss_22test_get_all_providers
FN:74,_RNvNtNtNtCs3dcIfeNtHV6_6domain19provider_management8services5testss_26test_get_healthy_providers
FN:136,_RNvNtNtNtCs3dcIfeNtHV6_6domain19provider_management8services5testss_37test_get_healthy_providers_empty_list
FNDA:1,_RNvMNtNtCs3dcIfeNtHV6_6domain19provider_management8servicesNtB2_16ProviderRegistry17get_all_providers
FNDA:2,_RNvMNtNtCs3dcIfeNtHV6_6domain19provider_management8servicesNtB2_16ProviderRegistry21get_healthy_providers
FNDA:3,_RNvMNtNtCs3dcIfeNtHV6_6domain19provider_management8servicesNtB2_16ProviderRegistry3new
FNDA:3,_RNCNvMNtNtCs3dcIfeNtHV6_6domain19provider_management8servicesNtB4_16ProviderRegistry21get_healthy_providers0B8_
FNDA:1,_RNvNtNtNtCs3dcIfeNtHV6_6domain19provider_management8services5testss_22test_get_all_providers
FNDA:1,_RNvNtNtNtCs3dcIfeNtHV6_6domain19provider_management8services5testss_26test_get_healthy_providers
FNDA:1,_RNvNtNtNtCs3dcIfeNtHV6_6domain19provider_management8services5testss_37test_get_healthy_providers_empty_list
FNF:7
FNH:7
DA:9,3
DA:10,3
DA:11,3
DA:13,1
DA:14,1
DA:15,1
DA:17,2
DA:18,2
DA:19,2
DA:20,3
DA:21,2
DA:22,2
DA:23,2
DA:32,1
DA:33,1
DA:35,1
DA:36,1
DA:37,1
DA:38,1
DA:39,1
DA:40,1
DA:41,1
DA:42,1
DA:43,1
DA:44,1
DA:45,1
DA:46,1
DA:50,1
DA:51,1
DA:52,1
DA:53,1
DA:54,1
DA:55,1
DA:56,1
DA:57,1
DA:58,1
DA:59,1
DA:60,1
DA:61,1
DA:65,1
DA:66,1
DA:68,1
DA:69,1
DA:70,1
DA:71,1
DA:74,1
DA:75,1
DA:77,1
DA:78,1
DA:79,1
DA:80,1
DA:81,1
DA:82,1
DA:83,1
DA:84,1
DA:85,1
DA:86,1
DA:87,1
DA:88,1
DA:92,1
DA:93,1
DA:94,1
DA:95,1
DA:96,1
DA:97,1
DA:98,1
DA:99,1
DA:100,1
DA:101,1
DA:102,1
DA:103,1
DA:107,1
DA:108,1
DA:109,1
DA:110,1
DA:111,1
DA:112,1
DA:113,1
DA:114,1
DA:115,1
DA:116,1
DA:117,1
DA:118,1
DA:122,1
DA:123,1
DA:124,1
DA:126,1
DA:127,1
DA:129,1
DA:130,1
DA:131,1
DA:132,1
DA:133,1
DA:136,1
DA:137,1
DA:138,1
DA:140,1
DA:142,1
DA:143,1
BRF:0
BRH:0
LF:100
LH:100
end_of_record
SF:/home/rubentxu/Proyectos/rust/hodei-jobs/crates/domain/src/provider_management/use_cases/mod.rs
FN:63,_RNvMNtNtNtCs3dcIfeNtHV6_6domain19provider_management9use_cases5testsNtB2_22MockProviderRepository3new
FN:179,_RNvNtNtNtCs3dcIfeNtHV6_6domain19provider_management9use_cases5testss_34test_list_providers_use_case_empty
FN:131,_RNvNtNtNtCs3dcIfeNtHV6_6domain19provider_management9use_cases5testss_36test_list_providers_use_case_success
FN:99,_RNvNtNtNtCs3dcIfeNtHV6_6domain19provider_management9use_cases5testss_39test_register_provider_use_case_success
FN:81,_RNvXs_NtNtNtCs3dcIfeNtHV6_6domain19provider_management9use_cases5testsNtB4_22MockProviderRepositoryNtNtB8_12repositories18ProviderRepository10find_by_id
FN:86,_RNvXs_NtNtNtCs3dcIfeNtHV6_6domain19provider_management9use_cases5testsNtB4_22MockProviderRepositoryNtNtB8_12repositories18ProviderRepository4list
FN:72,_RNvXs_NtNtNtCs3dcIfeNtHV6_6domain19provider_management9use_cases5testsNtB4_22MockProviderRepositoryNtNtB8_12repositories18ProviderRepository4save
FN:91,_RNvXs_NtNtNtCs3dcIfeNtHV6_6domain19provider_management9use_cases5testsNtB4_22MockProviderRepositoryNtNtB8_12repositories18ProviderRepository6delete
FN:22,_RNCNvMNtNtCs3dcIfeNtHV6_6domain19provider_management9use_casesNtB4_23RegisterProviderUseCase7execute0B8_
FN:46,_RNCNvMs_NtNtCs3dcIfeNtHV6_6domain19provider_management9use_casesNtB6_20ListProvidersUseCase7execute0Ba_
FN:174,_RNCNCNvNtNtNtCs3dcIfeNtHV6_6domain19provider_management9use_cases5testss_36test_list_providers_use_case_success00Bb_
FN:175,_RNCNCNvNtNtNtCs3dcIfeNtHV6_6domain19provider_management9use_cases5testss_36test_list_providers_use_case_success0s_0Bb_
FN:179,_RNCNvNtNtNtCs3dcIfeNtHV6_6domain19provider_management9use_cases5testss_34test_list_providers_use_case_empty0B9_
FN:131,_RNCNvNtNtNtCs3dcIfeNtHV6_6domain19provider_management9use_cases5testss_36test_list_providers_use_case_success0B9_
FN:99,_RNCNvNtNtNtCs3dcIfeNtHV6_6domain19provider_management9use_cases5testss_39test_register_provider_use_case_success0B9_
FN:12,_RNvMNtNtCs3dcIfeNtHV6_6domain19provider_management9use_casesNtB2_23RegisterProviderUseCase3new
FN:16,_RNvMNtNtCs3dcIfeNtHV6_6domain19provider_management9use_casesNtB2_23RegisterProviderUseCase7execute
FN:42,_RNvMs_NtNtCs3dcIfeNtHV6_6domain19provider_management9use_casesNtB4_20ListProvidersUseCase3new
FN:46,_RNvMs_NtNtCs3dcIfeNtHV6_6domain19provider_management9use_casesNtB4_20ListProvidersUseCase7execute
FNDA:3,_RNvMNtNtNtCs3dcIfeNtHV6_6domain19provider_management9use_cases5testsNtB2_22MockProviderRepository3new
FNDA:1,_RNvNtNtNtCs3dcIfeNtHV6_6domain19provider_management9use_cases5testss_34test_list_providers_use_case_empty
FNDA:1,_RNvNtNtNtCs3dcIfeNtHV6_6domain19provider_management9use_cases5testss_36test_list_providers_use_case_success
FNDA:1,_RNvNtNtNtCs3dcIfeNtHV6_6domain19provider_management9use_cases5testss_39test_register_provider_use_case_success
FNDA:0,_RNvXs_NtNtNtCs3dcIfeNtHV6_6domain19provider_management9use_cases5testsNtB4_22MockProviderRepositoryNtNtB8_12repositories18ProviderRepository10find_by_id
FNDA:2,_RNvXs_NtNtNtCs3dcIfeNtHV6_6domain19provider_management9use_cases5testsNtB4_22MockProviderRepositoryNtNtB8_12repositories18ProviderRepository4list
FNDA:1,_RNvXs_NtNtNtCs3dcIfeNtHV6_6domain19provider_management9use_cases5testsNtB4_22MockProviderRepositoryNtNtB8_12repositories18ProviderRepository4save
FNDA:0,_RNvXs_NtNtNtCs3dcIfeNtHV6_6domain19provider_management9use_cases5testsNtB4_22MockProviderRepositoryNtNtB8_12repositories18ProviderRepository6delete
FNDA:1,_RNCNvMNtNtCs3dcIfeNtHV6_6domain19provider_management9use_casesNtB4_23RegisterProviderUseCase7execute0B8_
FNDA:2,_RNCNvMs_NtNtCs3dcIfeNtHV6_6domain19provider_management9use_casesNtB6_20ListProvidersUseCase7execute0Ba_
FNDA:2,_RNCNCNvNtNtNtCs3dcIfeNtHV6_6domain19provider_management9use_cases5testss_36test_list_providers_use_case_success00Bb_
FNDA:1,_RNCNCNvNtNtNtCs3dcIfeNtHV6_6domain19provider_management9use_cases5testss_36test_list_providers_use_case_success0s_0Bb_
FNDA:1,_RNCNvNtNtNtCs3dcIfeNtHV6_6domain19provider_management9use_cases5testss_34test_list_providers_use_case_empty0B9_
FNDA:1,_RNCNvNtNtNtCs3dcIfeNtHV6_6domain19provider_management9use_cases5testss_36test_list_providers_use_case_success0B9_
FNDA:1,_RNCNvNtNtNtCs3dcIfeNtHV6_6domain19provider_management9use_cases5testss_39test_register_provider_use_case_success0B9_
FNDA:1,_RNvMNtNtCs3dcIfeNtHV6_6domain19provider_management9use_casesNtB2_23RegisterProviderUseCase3new
FNDA:1,_RNvMNtNtCs3dcIfeNtHV6_6domain19provider_management9use_casesNtB2_23RegisterProviderUseCase7execute
FNDA:2,_RNvMs_NtNtCs3dcIfeNtHV6_6domain19provider_management9use_casesNtB4_20ListProvidersUseCase3new
FNDA:2,_RNvMs_NtNtCs3dcIfeNtHV6_6domain19provider_management9use_casesNtB4_20ListProvidersUseCase7execute
FNF:19
FNH:17
DA:12,1
DA:13,1
DA:14,1
DA:16,1
DA:17,1
DA:18,1
DA:19,1
DA:20,1
DA:21,1
DA:22,1
DA:23,1
DA:24,1
DA:25,1
DA:26,1
DA:27,1
DA:28,1
DA:31,1
DA:32,1
DA:33,1
DA:42,2
DA:43,2
DA:44,2
DA:46,2
DA:47,2
DA:48,2
DA:63,3
DA:64,3
DA:65,3
DA:66,3
DA:67,3
DA:72,1
DA:76,1
DA:81,0
DA:84,0
DA:86,2
DA:89,2
DA:91,0
DA:95,0
DA:99,1
DA:100,1
DA:101,1
DA:103,1
DA:104,1
DA:105,1
DA:106,1
DA:107,1
DA:108,1
DA:110,1
DA:111,1
DA:114,1
DA:115,1
DA:116,1
DA:117,1
DA:118,1
DA:119,1
DA:120,1
DA:121,1
DA:122,1
DA:124,1
DA:125,1
DA:126,1
DA:127,1
DA:128,1
DA:131,1
DA:133,1
DA:134,1
DA:135,1
DA:136,1
DA:137,1
DA:138,1
DA:139,1
DA:140,1
DA:141,1
DA:142,1
DA:143,1
DA:144,1
DA:148,1
DA:149,1
DA:150,1
DA:151,1
DA:152,1
DA:153,1
DA:154,1
DA:155,1
DA:156,1
DA:157,1
DA:158,1
DA:159,1
DA:163,1
DA:164,1
DA:165,1
DA:166,1
DA:167,1
DA:168,1
DA:170,1
DA:171,1
DA:173,1
DA:174,2
DA:175,1
DA:176,1
DA:179,1
DA:180,1
DA:181,1
DA:183,1
DA:185,1
DA:186,1
BRF:0
BRH:0
LF:116
LH:112
end_of_record
SF:/home/rubentxu/Proyectos/rust/hodei-jobs/crates/domain/src/provider_management/value_objects/mod.rs
FN:16,_RNvMNtNtCs3dcIfeNtHV6_6domain19provider_management13value_objectsNtB2_14ProviderConfig3new
FN:32,_RNvNtNtNtCs3dcIfeNtHV6_6domain19provider_management13value_objects5testss_29test_provider_config_creation
FN:42,_RNvNtNtNtCs3dcIfeNtHV6_6domain19provider_management13value_objects5testss_37test_provider_config_with_credentials
FN:64,_RNvNtNtNtCs3dcIfeNtHV6_6domain19provider_management13value_objects5testss_44test_provider_config_with_region_and_timeout
FNDA:15,_RNvMNtNtCs3dcIfeNtHV6_6domain19provider_management13value_objectsNtB2_14ProviderConfig3new
FNDA:1,_RNvNtNtNtCs3dcIfeNtHV6_6domain19provider_management13value_objects5testss_29test_provider_config_creation
FNDA:1,_RNvNtNtNtCs3dcIfeNtHV6_6domain19provider_management13value_objects5testss_37test_provider_config_with_credentials
FNDA:1,_RNvNtNtNtCs3dcIfeNtHV6_6domain19provider_management13value_objects5testss_44test_provider_config_with_region_and_timeout
FNF:4
FNH:4
DA:16,15
DA:17,15
DA:18,15
DA:19,15
DA:20,15
DA:21,15
DA:22,15
DA:23,15
DA:32,1
DA:33,1
DA:35,1
DA:36,1
DA:37,1
DA:38,1
DA:39,1
DA:42,1
DA:43,1
DA:44,1
DA:45,1
DA:46,1
DA:47,1
DA:48,1
DA:49,1
DA:51,1
DA:52,1
DA:53,1
DA:54,1
DA:55,1
DA:57,1
DA:58,1
DA:59,1
DA:61,1
DA:64,1
DA:65,1
DA:66,1
DA:67,1
DA:69,1
DA:70,1
DA:71,1
BRF:0
BRH:0
LF:39
LH:39
end_of_record
SF:/home/rubentxu/Proyectos/rust/hodei-jobs/crates/domain/src/shared_kernel/types.rs
FN:156,_RNCNvXs8_NtNtCs3dcIfeNtHV6_6domain13shared_kernel5typesNtB7_20ResourceRequirementsNtNtCs66KPHxksi63_4core3cmp9PartialEq2eq0Bb_
FN:157,_RNCNvXs8_NtNtCs3dcIfeNtHV6_6domain13shared_kernel5typesNtB7_20ResourceRequirementsNtNtCs66KPHxksi63_4core3cmp9PartialEq2eqs_0Bb_
FN:154,_RNvXs8_NtNtCs3dcIfeNtHV6_6domain13shared_kernel5typesNtB5_20ResourceRequirementsNtNtCs66KPHxksi63_4core3cmp9PartialEq2eq
FN:138,_RNCNvXs6_NtNtCs3dcIfeNtHV6_6domain13shared_kernel5typesNtB7_20ProviderCapabilitiesNtNtCs66KPHxksi63_4core3cmp9PartialEq2eq0Bb_
FN:139,_RNCNvXs6_NtNtCs3dcIfeNtHV6_6domain13shared_kernel5typesNtB7_20ProviderCapabilitiesNtNtCs66KPHxksi63_4core3cmp9PartialEq2eqs_0Bb_
FN:14,_RNvMNtNtCs3dcIfeNtHV6_6domain13shared_kernel5typesNtB2_5JobId3new
FN:38,_RNvMs1_NtNtCs3dcIfeNtHV6_6domain13shared_kernel5typesNtB5_10ProviderId3new
FN:28,_RNvXs0_NtNtCs3dcIfeNtHV6_6domain13shared_kernel5typesNtB5_5JobIdNtNtCs66KPHxksi63_4core3fmt7Display3fmt
FN:44,_RNvXs2_NtNtCs3dcIfeNtHV6_6domain13shared_kernel5typesNtB5_10ProviderIdNtNtCs66KPHxksi63_4core3fmt7Display3fmt
FN:60,_RNvXs3_NtNtCs3dcIfeNtHV6_6domain13shared_kernel5typesNtB5_12ProviderTypeNtNtCs66KPHxksi63_4core3fmt7Display3fmt
FN:82,_RNvXs4_NtNtCs3dcIfeNtHV6_6domain13shared_kernel5typesNtB5_8JobStateNtNtCs66KPHxksi63_4core3fmt7Display3fmt
FN:104,_RNvXs5_NtNtCs3dcIfeNtHV6_6domain13shared_kernel5typesNtB5_15ExecutionStatusNtNtCs66KPHxksi63_4core3fmt7Display3fmt
FN:134,_RNvXs6_NtNtCs3dcIfeNtHV6_6domain13shared_kernel5typesNtB5_20ProviderCapabilitiesNtNtCs66KPHxksi63_4core3cmp9PartialEq2eq
FN:22,_RNvXs_NtNtCs3dcIfeNtHV6_6domain13shared_kernel5typesNtB4_5JobIdNtNtNtCs66KPHxksi63_4core3str6traits7FromStr8from_str
FN:183,_RNvNtNtNtCs3dcIfeNtHV6_6domain13shared_kernel5types5testss_19test_job_id_display
FN:171,_RNvNtNtNtCs3dcIfeNtHV6_6domain13shared_kernel5types5testss_20test_job_id_creation
FN:177,_RNvNtNtNtCs3dcIfeNtHV6_6domain13shared_kernel5types5testss_20test_job_id_from_str
FN:201,_RNvNtNtNtCs3dcIfeNtHV6_6domain13shared_kernel5types5testss_23test_job_state_variants
FN:228,_RNvNtNtNtCs3dcIfeNtHV6_6domain13shared_kernel5types5testss_24test_job_result_creation
FN:195,_RNvNtNtNtCs3dcIfeNtHV6_6domain13shared_kernel5types5testss_24test_provider_id_display
FN:189,_RNvNtNtNtCs3dcIfeNtHV6_6domain13shared_kernel5types5testss_25test_provider_id_creation
FN:219,_RNvNtNtNtCs3dcIfeNtHV6_6domain13shared_kernel5types5testss_27test_provider_type_variants
FN:210,_RNvNtNtNtCs3dcIfeNtHV6_6domain13shared_kernel5types5testss_30test_execution_status_variants
FN:242,_RNvNtNtNtCs3dcIfeNtHV6_6domain13shared_kernel5types5testss_35test_provider_capabilities_creation
FN:257,_RNvNtNtNtCs3dcIfeNtHV6_6domain13shared_kernel5types5testss_35test_resource_requirements_creation
FN:270,_RNvNtNtNtCs3dcIfeNtHV6_6domain13shared_kernel5types5testss_44test_job_result_equality_with_floating_point
FNDA:0,_RNCNvXs8_NtNtCs3dcIfeNtHV6_6domain13shared_kernel5typesNtB7_20ResourceRequirementsNtNtCs66KPHxksi63_4core3cmp9PartialEq2eq0Bb_
FNDA:0,_RNCNvXs8_NtNtCs3dcIfeNtHV6_6domain13shared_kernel5typesNtB7_20ResourceRequirementsNtNtCs66KPHxksi63_4core3cmp9PartialEq2eqs_0Bb_
FNDA:0,_RNvXs8_NtNtCs3dcIfeNtHV6_6domain13shared_kernel5typesNtB5_20ResourceRequirementsNtNtCs66KPHxksi63_4core3cmp9PartialEq2eq
FNDA:5,_RNCNvXs6_NtNtCs3dcIfeNtHV6_6domain13shared_kernel5typesNtB7_20ProviderCapabilitiesNtNtCs66KPHxksi63_4core3cmp9PartialEq2eq0Bb_
FNDA:5,_RNCNvXs6_NtNtCs3dcIfeNtHV6_6domain13shared_kernel5typesNtB7_20ProviderCapabilitiesNtNtCs66KPHxksi63_4core3cmp9PartialEq2eqs_0Bb_
FNDA:17,_RNvMNtNtCs3dcIfeNtHV6_6domain13shared_kernel5typesNtB2_5JobId3new
FNDA:21,_RNvMs1_NtNtCs3dcIfeNtHV6_6domain13shared_kernel5typesNtB5_10ProviderId3new
FNDA:11,_RNvXs0_NtNtCs3dcIfeNtHV6_6domain13shared_kernel5typesNtB5_5JobIdNtNtCs66KPHxksi63_4core3fmt7Display3fmt
FNDA:3,_RNvXs2_NtNtCs3dcIfeNtHV6_6domain13shared_kernel5typesNtB5_10ProviderIdNtNtCs66KPHxksi63_4core3fmt7Display3fmt
FNDA:5,_RNvXs3_NtNtCs3dcIfeNtHV6_6domain13shared_kernel5typesNtB5_12ProviderTypeNtNtCs66KPHxksi63_4core3fmt7Display3fmt
FNDA:5,_RNvXs4_NtNtCs3dcIfeNtHV6_6domain13shared_kernel5typesNtB5_8JobStateNtNtCs66KPHxksi63_4core3fmt7Display3fmt
FNDA:5,_RNvXs5_NtNtCs3dcIfeNtHV6_6domain13shared_kernel5typesNtB5_15ExecutionStatusNtNtCs66KPHxksi63_4core3fmt7Display3fmt
FNDA:5,_RNvXs6_NtNtCs3dcIfeNtHV6_6domain13shared_kernel5typesNtB5_20ProviderCapabilitiesNtNtCs66KPHxksi63_4core3cmp9PartialEq2eq
FNDA:1,_RNvXs_NtNtCs3dcIfeNtHV6_6domain13shared_kernel5typesNtB4_5JobIdNtNtNtCs66KPHxksi63_4core3str6traits7FromStr8from_str
FNDA:1,_RNvNtNtNtCs3dcIfeNtHV6_6domain13shared_kernel5types5testss_19test_job_id_display
FNDA:1,_RNvNtNtNtCs3dcIfeNtHV6_6domain13shared_kernel5types5testss_20test_job_id_creation
FNDA:1,_RNvNtNtNtCs3dcIfeNtHV6_6domain13shared_kernel5types5testss_20test_job_id_from_str
FNDA:1,_RNvNtNtNtCs3dcIfeNtHV6_6domain13shared_kernel5types5testss_23test_job_state_variants
FNDA:1,_RNvNtNtNtCs3dcIfeNtHV6_6domain13shared_kernel5types5testss_24test_job_result_creation
FNDA:1,_RNvNtNtNtCs3dcIfeNtHV6_6domain13shared_kernel5types5testss_24test_provider_id_display
FNDA:1,_RNvNtNtNtCs3dcIfeNtHV6_6domain13shared_kernel5types5testss_25test_provider_id_creation
FNDA:1,_RNvNtNtNtCs3dcIfeNtHV6_6domain13shared_kernel5types5testss_27test_provider_type_variants
FNDA:1,_RNvNtNtNtCs3dcIfeNtHV6_6domain13shared_kernel5types5testss_30test_execution_status_variants
FNDA:1,_RNvNtNtNtCs3dcIfeNtHV6_6domain13shared_kernel5types5testss_35test_provider_capabilities_creation
FNDA:1,_RNvNtNtNtCs3dcIfeNtHV6_6domain13shared_kernel5types5testss_35test_resource_requirements_creation
FNDA:1,_RNvNtNtNtCs3dcIfeNtHV6_6domain13shared_kernel5types5testss_44test_job_result_equality_with_floating_point
FNF:26
FNH:23
DA:14,17
DA:15,17
DA:16,17
DA:22,1
DA:23,1
DA:24,1
DA:28,11
DA:29,11
DA:30,11
DA:38,21
DA:39,21
DA:40,21
DA:44,3
DA:45,3
DA:46,3
DA:60,5
DA:61,5
DA:62,1
DA:63,1
DA:64,1
DA:65,1
DA:66,1
DA:68,5
DA:82,5
DA:83,5
DA:84,1
DA:85,1
DA:86,1
DA:87,1
DA:88,1
DA:90,5
DA:104,5
DA:105,5
DA:106,1
DA:107,1
DA:108,1
DA:109,1
DA:110,1
DA:112,5
DA:134,5
DA:135,5
DA:136,5
DA:137,5
DA:138,5
DA:139,5
DA:140,5
DA:154,0
DA:155,0
DA:156,0
DA:157,0
DA:158,0
DA:159,0
DA:171,1
DA:172,1
DA:173,1
DA:174,1
DA:177,1
DA:178,1
DA:179,1
DA:180,1
DA:183,1
DA:184,1
DA:185,1
DA:186,1
DA:189,1
DA:190,1
DA:191,1
DA:192,1
DA:195,1
DA:196,1
DA:197,1
DA:198,1
DA:201,1
DA:202,1
DA:203,1
DA:204,1
DA:205,1
DA:206,1
DA:207,1
DA:210,1
DA:211,1
DA:212,1
DA:213,1
DA:214,1
DA:215,1
DA:216,1
DA:219,1
DA:220,1
DA:221,1
DA:222,1
DA:223,1
DA:224,1
DA:225,1
DA:228,1
DA:229,1
DA:230,1
DA:231,1
DA:232,1
DA:233,1
DA:234,1
DA:236,1
DA:237,1
DA:238,1
DA:239,1
DA:242,1
DA:243,1
DA:244,1
DA:245,1
DA:246,1
DA:247,1
DA:248,1
DA:250,1
DA:251,1
DA:252,1
DA:253,1
DA:254,1
DA:257,1
DA:258,1
DA:259,1
DA:260,1
DA:261,1
DA:262,1
DA:264,1
DA:265,1
DA:266,1
DA:267,1
DA:270,1
DA:271,1
DA:272,1
DA:273,1
DA:274,1
DA:275,1
DA:276,1
DA:278,1
DA:279,1
DA:280,1
DA:281,1
DA:282,1
DA:283,1
DA:285,1
DA:286,1
BRF:0
BRH:0
LF:145
LH:137
end_of_record
SF:/home/rubentxu/Proyectos/rust/hodei-jobs/crates/infrastructure/src/adapters/mod.rs
FN:16,_RNvMNtCscsqLFmd2nPS_14infrastructure8adaptersNtB2_21DockerProviderAdapter3new
FN:40,_RNvXs_NtCscsqLFmd2nPS_14infrastructure8adaptersNtB4_21DockerProviderAdapterNtNtNtCscpd0A6xv0wi_6domain13shared_kernel6traits14ProviderWorker10cancel_job
FN:23,_RNvXs_NtCscsqLFmd2nPS_14infrastructure8adaptersNtB4_21DockerProviderAdapterNtNtNtCscpd0A6xv0wi_6domain13shared_kernel6traits14ProviderWorker10submit_job
FN:31,_RNvXs_NtCscsqLFmd2nPS_14infrastructure8adaptersNtB4_21DockerProviderAdapterNtNtNtCscpd0A6xv0wi_6domain13shared_kernel6traits14ProviderWorker14get_job_result
FN:44,_RNvXs_NtCscsqLFmd2nPS_14infrastructure8adaptersNtB4_21DockerProviderAdapterNtNtNtCscpd0A6xv0wi_6domain13shared_kernel6traits14ProviderWorker16get_capabilities
FN:27,_RNvXs_NtCscsqLFmd2nPS_14infrastructure8adaptersNtB4_21DockerProviderAdapterNtNtNtCscpd0A6xv0wi_6domain13shared_kernel6traits14ProviderWorker20get_execution_status
FNDA:0,_RNvMNtCscsqLFmd2nPS_14infrastructure8adaptersNtB2_21DockerProviderAdapter3new
FNDA:0,_RNvXs_NtCscsqLFmd2nPS_14infrastructure8adaptersNtB4_21DockerProviderAdapterNtNtNtCscpd0A6xv0wi_6domain13shared_kernel6traits14ProviderWorker10cancel_job
FNDA:0,_RNvXs_NtCscsqLFmd2nPS_14infrastructure8adaptersNtB4_21DockerProviderAdapterNtNtNtCscpd0A6xv0wi_6domain13shared_kernel6traits14ProviderWorker10submit_job
FNDA:0,_RNvXs_NtCscsqLFmd2nPS_14infrastructure8adaptersNtB4_21DockerProviderAdapterNtNtNtCscpd0A6xv0wi_6domain13shared_kernel6traits14ProviderWorker14get_job_result
FNDA:0,_RNvXs_NtCscsqLFmd2nPS_14infrastructure8adaptersNtB4_21DockerProviderAdapterNtNtNtCscpd0A6xv0wi_6domain13shared_kernel6traits14ProviderWorker16get_capabilities
FNDA:0,_RNvXs_NtCscsqLFmd2nPS_14infrastructure8adaptersNtB4_21DockerProviderAdapterNtNtNtCscpd0A6xv0wi_6domain13shared_kernel6traits14ProviderWorker20get_execution_status
FNF:6
FNH:0
DA:16,0
DA:17,0
DA:18,0
DA:23,0
DA:25,0
DA:27,0
DA:29,0
DA:31,0
DA:38,0
DA:40,0
DA:42,0
DA:44,0
DA:51,0
BRF:0
BRH:0
LF:13
LH:0
end_of_record
SF:/home/rubentxu/Proyectos/rust/hodei-jobs/crates/infrastructure/src/repositories/mod.rs
FN:14,_RNvMNtCscsqLFmd2nPS_14infrastructure12repositoriesNtB2_21InMemoryJobRepository3new
FN:51,_RNvMs_NtCscsqLFmd2nPS_14infrastructure12repositoriesNtB4_26InMemoryProviderRepository3new
FN:29,_RNvXs0_NtCscsqLFmd2nPS_14infrastructure12repositoriesNtB5_21InMemoryJobRepositoryNtNtNtCscpd0A6xv0wi_6domain13job_execution12repositories13JobRepository10find_by_id
FN:34,_RNvXs0_NtCscsqLFmd2nPS_14infrastructure12repositoriesNtB5_21InMemoryJobRepositoryNtNtNtCscpd0A6xv0wi_6domain13job_execution12repositories13JobRepository4list
FN:23,_RNvXs0_NtCscsqLFmd2nPS_14infrastructure12repositoriesNtB5_21InMemoryJobRepositoryNtNtNtCscpd0A6xv0wi_6domain13job_execution12repositories13JobRepository4save
FN:39,_RNvXs0_NtCscsqLFmd2nPS_14infrastructure12repositoriesNtB5_21InMemoryJobRepositoryNtNtNtCscpd0A6xv0wi_6domain13job_execution12repositories13JobRepository6delete
FN:66,_RNvXs1_NtCscsqLFmd2nPS_14infrastructure12repositoriesNtB5_26InMemoryProviderRepositoryNtNtNtCscpd0A6xv0wi_6domain19provider_management12repositories18ProviderRepository10find_by_id
FN:71,_RNvXs1_NtCscsqLFmd2nPS_14infrastructure12repositoriesNtB5_26InMemoryProviderRepositoryNtNtNtCscpd0A6xv0wi_6domain19provider_management12repositories18ProviderRepository4list
FN:60,_RNvXs1_NtCscsqLFmd2nPS_14infrastructure12repositoriesNtB5_26InMemoryProviderRepositoryNtNtNtCscpd0A6xv0wi_6domain19provider_management12repositories18ProviderRepository4save
FN:76,_RNvXs1_NtCscsqLFmd2nPS_14infrastructure12repositoriesNtB5_26InMemoryProviderRepositoryNtNtNtCscpd0A6xv0wi_6domain19provider_management12repositories18ProviderRepository6delete
FNDA:0,_RNvMNtCscsqLFmd2nPS_14infrastructure12repositoriesNtB2_21InMemoryJobRepository3new
FNDA:0,_RNvMs_NtCscsqLFmd2nPS_14infrastructure12repositoriesNtB4_26InMemoryProviderRepository3new
FNDA:0,_RNvXs0_NtCscsqLFmd2nPS_14infrastructure12repositoriesNtB5_21InMemoryJobRepositoryNtNtNtCscpd0A6xv0wi_6domain13job_execution12repositories13JobRepository10find_by_id
FNDA:0,_RNvXs0_NtCscsqLFmd2nPS_14infrastructure12repositoriesNtB5_21InMemoryJobRepositoryNtNtNtCscpd0A6xv0wi_6domain13job_execution12repositories13JobRepository4list
FNDA:0,_RNvXs0_NtCscsqLFmd2nPS_14infrastructure12repositoriesNtB5_21InMemoryJobRepositoryNtNtNtCscpd0A6xv0wi_6domain13job_execution12repositories13JobRepository4save
FNDA:0,_RNvXs0_NtCscsqLFmd2nPS_14infrastructure12repositoriesNtB5_21InMemoryJobRepositoryNtNtNtCscpd0A6xv0wi_6domain13job_execution12repositories13JobRepository6delete
FNDA:0,_RNvXs1_NtCscsqLFmd2nPS_14infrastructure12repositoriesNtB5_26InMemoryProviderRepositoryNtNtNtCscpd0A6xv0wi_6domain19provider_management12repositories18ProviderRepository10find_by_id
FNDA:0,_RNvXs1_NtCscsqLFmd2nPS_14infrastructure12repositoriesNtB5_26InMemoryProviderRepositoryNtNtNtCscpd0A6xv0wi_6domain19provider_management12repositories18ProviderRepository4list
FNDA:0,_RNvXs1_NtCscsqLFmd2nPS_14infrastructure12repositoriesNtB5_26InMemoryProviderRepositoryNtNtNtCscpd0A6xv0wi_6domain19provider_management12repositories18ProviderRepository4save
FNDA:0,_RNvXs1_NtCscsqLFmd2nPS_14infrastructure12repositoriesNtB5_26InMemoryProviderRepositoryNtNtNtCscpd0A6xv0wi_6domain19provider_management12repositories18ProviderRepository6delete
FNF:10
FNH:0
DA:14,0
DA:15,0
DA:16,0
DA:17,0
DA:18,0
DA:23,0
DA:27,0
DA:29,0
DA:32,0
DA:34,0
DA:37,0
DA:39,0
DA:43,0
DA:51,0
DA:52,0
DA:53,0
DA:54,0
DA:55,0
DA:60,0
DA:64,0
DA:66,0
DA:69,0
DA:71,0
DA:74,0
DA:76,0
DA:80,0
BRF:0
BRH:0
LF:26
LH:0
end_of_record